target datalayout = "e-m:e-p270:32:32-p271:32:32-p272:64:64-i64:64-i128:128-f80:128-n8:16:32:64-S128"
target triple = "x86_64-pc-linux-gnu"

%struct.VLC = type { i32, ptr, i32, i32 }

@.str = private unnamed_addr constant [30 x i8] c"Assertion %s failed at %s:%d\0A\00", align 1
@.str.2 = private unnamed_addr constant [17 x i8] c"libavcodec/vlc.c\00", align 1
@.str.8 = private unnamed_addr constant [18 x i8] c"needed %d had %d\0A\00", align 1
@.str.9 = private unnamed_addr constant [9 x i8] c"ret >= 0\00", align 1

; Function Attrs: nounwind uwtable
define internal i32 @vlc_common_end(ptr noundef %0, i32 noundef %1, i32 noundef %2, ptr noundef %3, i32 noundef %4, ptr noundef %5) #0 {
  %7 = alloca i32, align 4
  %8 = alloca ptr, align 8
  %9 = alloca i32, align 4
  %10 = alloca i32, align 4
  %11 = alloca ptr, align 8
  %12 = alloca i32, align 4
  %13 = alloca ptr, align 8
  %14 = alloca i32, align 4
  %15 = alloca i32, align 4
  store ptr %0, ptr %8, align 8, !tbaa !4
  store i32 %1, ptr %9, align 4, !tbaa !9
  store i32 %2, ptr %10, align 4, !tbaa !9
  store ptr %3, ptr %11, align 8, !tbaa !12
  store i32 %4, ptr %12, align 4, !tbaa !9
  store ptr %5, ptr %13, align 8, !tbaa !12
  call void @llvm.lifetime.start.p0(i64 4, ptr %14) #8
  %16 = load ptr, ptr %8, align 8, !tbaa !4
  %17 = load i32, ptr %9, align 4, !tbaa !9
  %18 = load i32, ptr %10, align 4, !tbaa !9
  %19 = load ptr, ptr %11, align 8, !tbaa !12
  %20 = load i32, ptr %12, align 4, !tbaa !9
  %21 = call i32 @build_table(ptr noundef %16, i32 noundef %17, i32 noundef %18, ptr noundef %19, i32 noundef %20)
  store i32 %21, ptr %14, align 4, !tbaa !9
  %22 = load i32, ptr %12, align 4, !tbaa !9
  %23 = and i32 %22, 1
  %24 = icmp ne i32 %23, 0
  br i1 %24, label %25, label %52

25:                                               ; preds = %6
  %26 = load ptr, ptr %8, align 8, !tbaa !4
  %27 = getelementptr inbounds nuw %struct.VLC, ptr %26, i32 0, i32 2
  %28 = load i32, ptr %27, align 8, !tbaa !39
  %29 = load ptr, ptr %8, align 8, !tbaa !4
  %30 = getelementptr inbounds nuw %struct.VLC, ptr %29, i32 0, i32 3
  %31 = load i32, ptr %30, align 4, !tbaa !41
  %32 = icmp ne i32 %28, %31
  br i1 %32, label %33, label %44

33:                                               ; preds = %25
  %34 = load i32, ptr %12, align 4, !tbaa !9
  %35 = and i32 %34, 2
  %36 = icmp ne i32 %35, 0
  br i1 %36, label %44, label %37

37:                                               ; preds = %33
  %38 = load ptr, ptr %8, align 8, !tbaa !4
  %39 = getelementptr inbounds nuw %struct.VLC, ptr %38, i32 0, i32 2
  %40 = load i32, ptr %39, align 8, !tbaa !39
  %41 = load ptr, ptr %8, align 8, !tbaa !4
  %42 = getelementptr inbounds nuw %struct.VLC, ptr %41, i32 0, i32 3
  %43 = load i32, ptr %42, align 4, !tbaa !41
  call void (ptr, i32, ptr, ...) @av_log(ptr noundef null, i32 noundef 16, ptr noundef @.str.8, i32 noundef %40, i32 noundef %43)
  br label %44

44:                                               ; preds = %37, %33, %25
  br label %45

45:                                               ; preds = %44
  %46 = load i32, ptr %14, align 4, !tbaa !9
  %47 = icmp sge i32 %46, 0
  br i1 %47, label %49, label %48

48:                                               ; preds = %45
  call void (ptr, i32, ptr, ...) @av_log(ptr noundef null, i32 noundef 0, ptr noundef @.str, ptr noundef @.str.9, ptr noundef @.str.2, i32 noundef 238)
  call void @abort() #9
  unreachable

49:                                               ; preds = %45
  br label %50

50:                                               ; preds = %49
  br label %51

51:                                               ; preds = %50
  br label %66

52:                                               ; preds = %6
  %53 = load ptr, ptr %11, align 8, !tbaa !12
  %54 = load ptr, ptr %13, align 8, !tbaa !12
  %55 = icmp ne ptr %53, %54
  br i1 %55, label %56, label %58

56:                                               ; preds = %52
  %57 = load ptr, ptr %11, align 8, !tbaa !12
  call void @av_free(ptr noundef %57)
  br label %58

58:                                               ; preds = %56, %52
  %59 = load i32, ptr %14, align 4, !tbaa !9
  %60 = icmp slt i32 %59, 0
  br i1 %60, label %61, label %65

61:                                               ; preds = %58
  %62 = load ptr, ptr %8, align 8, !tbaa !4
  %63 = getelementptr inbounds nuw %struct.VLC, ptr %62, i32 0, i32 1
  call void @av_freep(ptr noundef %63)
  %64 = load i32, ptr %14, align 4, !tbaa !9
  store i32 %64, ptr %7, align 4
  store i32 1, ptr %15, align 4
  br label %67

65:                                               ; preds = %58
  br label %66

66:                                               ; preds = %65, %51
  store i32 0, ptr %7, align 4
  store i32 1, ptr %15, align 4
  br label %67

67:                                               ; preds = %66, %61
  call void @llvm.lifetime.end.p0(i64 4, ptr %14) #8
  %68 = load i32, ptr %7, align 4
  ret i32 %68
}