; Function Attrs: nounwind uwtable
define internal fastcc range(i32 -2147483648, 1) i32 @vlc_common_end(ptr noundef %0, i32 noundef %1, i32 noundef %2, ptr noundef %3, i32 noundef %4, ptr noundef readnone captures(address) %5) unnamed_addr #0 {
  %7 = tail call fastcc i32 @build_table(ptr noundef %0, i32 noundef %1, i32 noundef %2, ptr noundef %3, i32 noundef %4)
  %8 = and i32 %4, 1
  %.not = icmp eq i32 %8, 0
  br i1 %.not, label %19, label %9

9:                                                ; preds = %6
  %10 = getelementptr inbounds nuw i8, ptr %0, i64 16
  %11 = load i32, ptr %10, align 8, !tbaa !11
  %12 = getelementptr inbounds nuw i8, ptr %0, i64 20
  %13 = load i32, ptr %12, align 4, !tbaa !13
  %.not23 = icmp ne i32 %11, %13
  %14 = and i32 %4, 2
  %.not24 = icmp eq i32 %14, 0
  %or.cond = and i1 %.not24, %.not23
  br i1 %or.cond, label %15, label %16

15:                                               ; preds = %9
  tail call void (ptr, i32, ptr, ...) @av_log(ptr noundef null, i32 noundef 16, ptr noundef nonnull @.str.8, i32 noundef %11, i32 noundef %13) #8
  br label %16

16:                                               ; preds = %9, %15
  %17 = icmp sgt i32 %7, -1
  br i1 %17, label %25, label %18

18:                                               ; preds = %16
  tail call void (ptr, i32, ptr, ...) @av_log(ptr noundef null, i32 noundef 0, ptr noundef nonnull @.str, ptr noundef nonnull @.str.9, ptr noundef nonnull @.str.2, i32 noundef 238) #8
  tail call void @abort() #9
  unreachable

19:                                               ; preds = %6
  %.not22 = icmp eq ptr %3, %5
  br i1 %.not22, label %21, label %20

20:                                               ; preds = %19
  tail call void @av_free(ptr noundef %3) #8
  br label %21

21:                                               ; preds = %20, %19
  %22 = icmp slt i32 %7, 0
  br i1 %22, label %23, label %25

23:                                               ; preds = %21
  %24 = getelementptr inbounds nuw i8, ptr %0, i64 8
  tail call void @av_freep(ptr noundef nonnull %24) #8
  br label %25

25:                                               ; preds = %16, %21, %23
  %.0 = phi i32 [ %7, %23 ], [ 0, %21 ], [ 0, %16 ]
  ret i32 %.0
}